; Function Attrs: nounwind uwtable
define internal void @event_handler(i32 noundef %0, i16 noundef signext %1, ptr noundef initializes((178, 180)) %2) #1 {
  %4 = getelementptr inbounds nuw i8, ptr %2, i64 178
  store i16 %1, ptr %4, align 2, !tbaa !155
  %5 = getelementptr inbounds nuw i8, ptr %2, i64 8
  %6 = load i32, ptr %5, align 8, !tbaa !52
  %.not = icmp eq i32 %0, %6
  br i1 %.not, label %14, label %7

7:                                                ; preds = %3
  %8 = load i32, ptr getelementptr inbounds nuw (i8, ptr @settings, i64 32), align 8, !tbaa !49
  %9 = icmp sgt i32 %8, 0
  br i1 %9, label %10, label %13

10:                                               ; preds = %7
  %11 = load ptr, ptr @stderr, align 8, !tbaa !50
  %12 = tail call i64 @fwrite(ptr nonnull @.str.412, i64 46, i64 1, ptr %11) #38
  br label %13

13:                                               ; preds = %10, %7
  tail call fastcc void @conn_close(ptr noundef nonnull %2)
  br label %15

14:                                               ; preds = %3
  tail call fastcc void @drive_machine(ptr noundef nonnull %2)
  br label %15

15:                                               ; preds = %14, %13
  ret void
}